; Function Attrs: nounwind uwtable
define nonnull ptr @l_Array_anyMUnsafe_any___at_Lean_Meta_getFVarSetToGeneralize___spec__7___boxed(ptr noundef %0, ptr noundef %1, ptr noundef %2, ptr noundef %3, ptr noundef %4) local_unnamed_addr #0 {
  %6 = getelementptr i8, ptr %3, i64 8
  %.val17 = load i64, ptr %6, align 8, !tbaa !12
  %7 = ptrtoint ptr %3 to i64
  %8 = and i64 %7, 1
  %.not = icmp eq i64 %8, 0
  br i1 %.not, label %9, label %lean_dec.exit12

9:                                                ; preds = %5
  %10 = load i32, ptr %3, align 4, !tbaa !8
  %11 = icmp sgt i32 %10, 1
  br i1 %11, label %12, label %14, !prof !11

12:                                               ; preds = %9
  %13 = add nsw i32 %10, -1
  store i32 %13, ptr %3, align 4, !tbaa !8
  br label %lean_dec.exit12

14:                                               ; preds = %9
  %.not.i = icmp eq i32 %10, 0
  br i1 %.not.i, label %lean_dec.exit12, label %15

15:                                               ; preds = %14
  tail call void @lean_dec_ref_cold(ptr noundef nonnull %3) #4
  br label %lean_dec.exit12

lean_dec.exit12:                                  ; preds = %15, %14, %12, %5
  %16 = getelementptr i8, ptr %4, i64 8
  %.val = load i64, ptr %16, align 8, !tbaa !12
  %17 = ptrtoint ptr %4 to i64
  %18 = and i64 %17, 1
  %.not18 = icmp eq i64 %18, 0
  br i1 %.not18, label %19, label %lean_dec.exit11

19:                                               ; preds = %lean_dec.exit12
  %20 = load i32, ptr %4, align 4, !tbaa !8
  %21 = icmp sgt i32 %20, 1
  br i1 %21, label %22, label %24, !prof !11

22:                                               ; preds = %19
  %23 = add nsw i32 %20, -1
  store i32 %23, ptr %4, align 4, !tbaa !8
  br label %lean_dec.exit11

24:                                               ; preds = %19
  %.not.i13 = icmp eq i32 %20, 0
  br i1 %.not.i13, label %lean_dec.exit11, label %25

25:                                               ; preds = %24
  tail call void @lean_dec_ref_cold(ptr noundef nonnull %4) #4
  br label %lean_dec.exit11

lean_dec.exit11:                                  ; preds = %25, %24, %22, %lean_dec.exit12
  %26 = tail call zeroext i8 @l_Array_anyMUnsafe_any___at_Lean_Meta_getFVarSetToGeneralize___spec__7(ptr noundef %0, ptr noundef %1, ptr noundef %2, i64 noundef %.val17, i64 noundef %.val)
  %27 = ptrtoint ptr %2 to i64
  %28 = and i64 %27, 1
  %.not19 = icmp eq i64 %28, 0
  br i1 %.not19, label %29, label %lean_dec.exit

29:                                               ; preds = %lean_dec.exit11
  %30 = load i32, ptr %2, align 4, !tbaa !8
  %31 = icmp sgt i32 %30, 1
  br i1 %31, label %32, label %34, !prof !11

32:                                               ; preds = %29
  %33 = add nsw i32 %30, -1
  store i32 %33, ptr %2, align 4, !tbaa !8
  br label %lean_dec.exit

34:                                               ; preds = %29
  %.not.i15 = icmp eq i32 %30, 0
  br i1 %.not.i15, label %lean_dec.exit, label %35

35:                                               ; preds = %34
  tail call void @lean_dec_ref_cold(ptr noundef nonnull %2) #4
  br label %lean_dec.exit

lean_dec.exit:                                    ; preds = %35, %34, %32, %lean_dec.exit11
  %36 = shl nuw nsw i8 %26, 1
  %37 = or disjoint i8 %36, 1
  %38 = zext nneg i8 %37 to i64
  %39 = inttoptr i64 %38 to ptr
  ret ptr %39
}